(dp1
I43
(dp2
S'becameSuitTime'
p3
F1467744376.9879999
sS'savedBy'
p4
NsS'track'
p5
S's'
sS'numFloors'
p6
I5
sS'difficulty'
p7
I6
sS'state'
p8
S'suit'
p9
sS'block'
p10
I43
ssI19
(dp11
g3
F1467743190.4960001
sg4
Nsg5
S'l'
sg6
I5
sg7
I7
sg8
g9
sg10
I19
ssI30
(dp12
g3
F1467744442.4400001
sg4
Nsg5
S's'
sg6
I5
sg7
I7
sg8
g9
sg10
I30
ssI22
(dp13
g3
F1467744280.987
sg4
Nsg5
S's'
sg6
I3
sg7
I5
sg8
g9
sg10
I22
ssI49
(dp14
g3
F1467744238.277
sg4
Nsg5
S's'
sg6
I4
sg7
I5
sg8
g9
sg10
I49
ss.