(dp1
I40
(dp2
S'becameSuitTime'
p3
F1467743477.6860001
sS'savedBy'
p4
NsS'track'
p5
S'c'
sS'numFloors'
p6
I1
sS'difficulty'
p7
I2
sS'state'
p8
S'suit'
p9
sS'block'
p10
I40
ssI72
(dp11
g3
F1467657821.25
sg4
Nsg5
S'l'
sg6
I3
sg7
I4
sg8
g9
sg10
I72
ssI42
(dp12
g3
F1467742137.194
sg4
Nsg5
S'l'
sg6
I2
sg7
I3
sg8
g9
sg10
I42
ssI12
(dp13
g3
F1467657804.23
sg4
Nsg5
S'c'
sg6
I4
sg7
I5
sg8
g9
sg10
I12
ssI62
(dp14
g3
F1467743530.9360001
sg4
Nsg5
S'c'
sg6
I4
sg7
I5
sg8
g9
sg10
I62
ss.