(dp1
I59
(dp2
S'becameSuitTime'
p3
F1467744275.447
sS'savedBy'
p4
NsS'track'
p5
S'm'
sS'numFloors'
p6
I5
sS'difficulty'
p7
I7
sS'state'
p8
S'suit'
p9
sS'block'
p10
I59
ssI27
(dp11
g3
F1467743439.1659999
sg4
Nsg5
S'm'
sg6
I5
sg7
I6
sg8
g9
sg10
I27
ssI53
(dp12
g3
F1467743538.8559999
sg4
Nsg5
S'm'
sg6
I5
sg7
I7
sg8
g9
sg10
I53
ssI54
(dp13
g3
F1469121891.8989999
sg4
Nsg5
S's'
sg6
I5
sg7
I8
sg8
g9
sg10
I54
ssI15
(dp14
g3
F1467743494.3559999
sg4
Nsg5
S'l'
sg6
I4
sg7
I7
sg8
g9
sg10
I15
ss.