(dp1
I17
(dp2
S'becameSuitTime'
p3
F1405654130.997
sS'savedBy'
p4
NsS'track'
p5
S'l'
sS'numFloors'
p6
I2
sS'difficulty'
p7
I1
sS'state'
p8
S'suit'
p9
sS'block'
p10
I17
ssI14
(dp11
g3
F1403461874.6470001
sg4
Nsg5
S'l'
sg6
I2
sg7
I1
sg8
g9
sg10
I14
ssI39
(dp12
g3
F1403462188.473
sg4
Nsg5
S'l'
sg6
I2
sg7
I2
sg8
g9
sg10
I39
ss.