(dp1
I27
(dp2
S'becameSuitTime'
p3
F1467656412.385
sS'savedBy'
p4
NsS'track'
p5
S's'
sS'numFloors'
p6
I3
sS'difficulty'
p7
I3
sS'state'
p8
S'suit'
p9
sS'block'
p10
I27
ssI25
(dp11
g3
F1467741955.414
sg4
Nsg5
S'c'
sg6
I3
sg7
I4
sg8
g9
sg10
I25
ssI11
(dp12
g3
F1467656359.4549999
sg4
Nsg5
S'l'
sg6
I3
sg7
I2
sg8
g9
sg10
I11
ssI12
(dp13
g3
F1467654933.743
sg4
Nsg5
S'l'
sg6
I1
sg7
I2
sg8
g9
sg10
I12
ssI13
(dp14
g3
F1467657596.4100001
sg4
Nsg5
S's'
sg6
I4
sg7
I5
sg8
g9
sg10
I13
ss.