(dp1
I18
(dp2
S'becameSuitTime'
p3
F1467742100.704
sS'savedBy'
p4
NsS'track'
p5
S's'
sS'numFloors'
p6
I2
sS'difficulty'
p7
I1
sS'state'
p8
S'suit'
p9
sS'block'
p10
I18
ssI19
(dp11
g3
F1467743959.727
sg4
Nsg5
S's'
sg6
I2
sg7
I1
sg8
g9
sg10
I19
ssI20
(dp12
g3
F1467743417.1059999
sg4
Nsg5
S's'
sg6
I1
sg7
I2
sg8
g9
sg10
I20
ssI26
(dp13
g3
F1467743364.326
sg4
Nsg5
S's'
sg6
I2
sg7
I2
sg8
g9
sg10
I26
ssI15
(dp14
g3
F1467657736.54
sg4
Nsg5
S's'
sg6
I1
sg7
I1
sg8
g9
sg10
I15
ss.