(dp1
I32
(dp2
S'becameSuitTime'
p3
F1467742007.994
sS'savedBy'
p4
NsS'track'
p5
S's'
sS'numFloors'
p6
I2
sS'difficulty'
p7
I1
sS'state'
p8
S'suit'
p9
sS'block'
p10
I32
ssI10
(dp11
g3
F1467657653.76
sg4
Nsg5
S's'
sg6
I1
sg7
I1
sg8
g9
sg10
I10
ssI12
(dp12
g3
F1467656421.6849999
sg4
Nsg5
S'm'
sg6
I3
sg7
I3
sg8
g9
sg10
I12
ssI26
(dp13
g3
F1467743792.477
sg4
Nsg5
S's'
sg6
I2
sg7
I1
sg8
g9
sg10
I26
ssI23
(dp14
g3
F1467742042.914
sg4
Nsg5
S's'
sg6
I3
sg7
I2
sg8
g9
sg10
I23
ss.