(dp1
I32
(dp2
S'becameSuitTime'
p3
F1403461069.951
sS'savedBy'
p4
NsS'track'
p5
S's'
sS'numFloors'
p6
I3
sS'difficulty'
p7
I2
sS'state'
p8
S'suit'
p9
sS'block'
p10
I32
ssI49
(dp11
g3
F1403462916.9319999
sg4
Nsg5
S'c'
sg6
I1
sg7
I1
sg8
g9
sg10
I49
ssI57
(dp12
g3
F1403461968.4030001
sg4
Nsg5
S'c'
sg6
I1
sg7
I1
sg8
g9
sg10
I57
ss.