(dp1
I16
(dp2
S'becameSuitTime'
p3
F1467743159.3659999
sS'savedBy'
p4
NsS'track'
p5
S'm'
sS'numFloors'
p6
I4
sS'difficulty'
p7
I4
sS'state'
p8
S'suit'
p9
sS'block'
p10
I16
ssI17
(dp11
g3
F1467741992.3940001
sg4
Nsg5
S'm'
sg6
I3
sg7
I4
sg8
g9
sg10
I17
ssI18
(dp12
g3
F1467744251.6370001
sg4
Nsg5
S'm'
sg6
I3
sg7
I4
sg8
g9
sg10
I18
ssI28
(dp13
g3
F1467743096.9560001
sg4
Nsg5
S'm'
sg6
I5
sg7
I6
sg8
g9
sg10
I28
ssI15
(dp14
g3
F1467744275.3469999
sg4
Nsg5
S'l'
sg6
I5
sg7
I6
sg8
g9
sg10
I15
ss.