(dp1
I24
(dp2
S'becameSuitTime'
p3
F1467741952.664
sS'savedBy'
p4
NsS'track'
p5
S'l'
sS'numFloors'
p6
I5
sS'difficulty'
p7
I7
sS'state'
p8
S'suit'
p9
sS'block'
p10
I24
ssI28
(dp11
g3
F1467743365.8559999
sg4
Nsg5
S'l'
sg6
I4
sg7
I6
sg8
g9
sg10
I28
ssI10
(dp12
g3
F1467744343.7780001
sg4
Nsg5
S'l'
sg6
I5
sg7
I8
sg8
g9
sg10
I10
ssI20
(dp13
g3
F1467741996.164
sg4
Nsg5
S'l'
sg6
I5
sg7
I7
sg8
g9
sg10
I20
ssI30
(dp14
g3
F1467741967.1040001
sg4
Nsg5
S'l'
sg6
I5
sg7
I8
sg8
g9
sg10
I30
ss.